; Function Attrs: mustprogress uwtable
define hidden noundef nonnull align 8 dereferenceable(200) ptr @_ZN19OpenColorIO_v2_5dev14ExponentOpDataaSERKS0_(ptr noundef nonnull returned align 8 dereferenceable(200) %0, ptr noundef nonnull align 8 dereferenceable(200) %1) local_unnamed_addr #3 align 2 {
  %.not = icmp eq ptr %0, %1
  br i1 %.not, label %7, label %3

3:                                                ; preds = %2
  %4 = tail call noundef nonnull align 8 dereferenceable(168) ptr @_ZN19OpenColorIO_v2_5dev6OpDataaSERKS0_(ptr noundef nonnull align 8 dereferenceable(168) %0, ptr noundef nonnull align 8 dereferenceable(168) %1)
  %5 = getelementptr inbounds nuw i8, ptr %0, i64 168
  %6 = getelementptr inbounds nuw i8, ptr %1, i64 168
  tail call void @llvm.memcpy.p0.p0.i64(ptr noundef nonnull align 8 dereferenceable(32) %5, ptr noundef nonnull align 8 dereferenceable(32) %6, i64 32, i1 false)
  br label %7

7:                                                ; preds = %3, %2
  ret ptr %0
}